target datalayout = "e-m:e-p270:32:32-p271:32:32-p272:64:64-i64:64-i128:128-f80:128-n8:16:32:64-S128"
target triple = "x86_64-pc-linux-gnu"

%struct.ScanTable = type { ptr, [64 x i8], [64 x i8] }
%struct.MpegEncContext = type { ptr, i32, i32, i32, [12 x i32], i32, %struct.ScanTable, %struct.ScanTable, [64 x i8], [64 x i8], ptr, ptr, i32, i32, i32, i32, i32, i32, i32, i32, i32, i32, i32, i32, i32, i32, i32, i32, i32, i32, i32, i32, i64, i64, ptr, %struct.BufferPoolContext, i32, i32, %union.anon, i32, %struct.MPVWorkPicture, %struct.MPVWorkPicture, %struct.MPVWorkPicture, i32, [3 x i32], ptr, [3 x ptr], ptr, ptr, ptr, ptr, ptr, ptr, [3 x ptr], i32, ptr, ptr, ptr, ptr, %struct.ScratchpadContext, i32, i32, i32, i32, i32, i32, %struct.BlockDSPContext, %struct.H264ChromaContext, %struct.HpelDSPContext, %struct.IDCTDSPContext, %struct.QpelDSPContext, %struct.VideoDSPContext, %struct.H263DSPContext, ptr, [2 x [2 x ptr]], i32, i32, [2 x [4 x [2 x i32]]], [2 x [2 x i32]], [2 x [2 x [2 x i32]]], [2 x [64 x i16]], i32, i32, i32, i32, i32, [6 x i32], [6 x i32], [3 x ptr], ptr, [64 x i16], [64 x i16], [64 x i16], [64 x i16], i32, i32, %struct.GetBitContext, i32, i32, i32, i32, i32, i32, i32, i32, i32, i32, i32, i32, i32, i32, i32, i64, i64, i16, i16, i16, i16, i32, i32, i32, i32, i32, i32, i32, i32, i32, [3 x i32], i32, i32, i32, i32, i32, i32, %struct.GetBitContext, i32, [2 x [2 x i32]], i32, i32, i32, i32, i32, i32, i32, i32, i32, i32, i32, i32, i32, i32, [2 x i32], i32, i32, ptr, ptr, ptr, ptr, ptr, i32, i32, %struct.ERContext }
%struct.BufferPoolContext = type { ptr, ptr, ptr, ptr, ptr, i32, i32, i32 }
%union.anon = type { [32 x ptr] }
%struct.MPVWorkPicture = type { [3 x ptr], [3 x i64], ptr, ptr, [2 x ptr], ptr, ptr, [2 x ptr], i32 }
%struct.ScratchpadContext = type { ptr, ptr, %union.anon.0, i32 }
%union.anon.0 = type { ptr }
%struct.BlockDSPContext = type { ptr, ptr, [2 x ptr] }
%struct.H264ChromaContext = type { [4 x ptr], [4 x ptr] }
%struct.HpelDSPContext = type { [4 x [4 x ptr]], [4 x [4 x ptr]], [4 x [4 x ptr]], [4 x ptr] }
%struct.IDCTDSPContext = type { ptr, ptr, ptr, ptr, ptr, ptr, [64 x i8], i32, i32 }
%struct.QpelDSPContext = type { [2 x [16 x ptr]], [2 x [16 x ptr]], [2 x [16 x ptr]] }
%struct.VideoDSPContext = type { ptr, ptr }
%struct.H263DSPContext = type { ptr, ptr }
%struct.GetBitContext = type { ptr, ptr, i32, i32, i32 }
%struct.ERContext = type { ptr, ptr, i32, ptr, i32, i32, i32, i64, i64, i32, i32, ptr, ptr, [3 x ptr], ptr, ptr, [2 x [4 x [2 x i32]]], %struct.ERPicture, %struct.ERPicture, %struct.ERPicture, [2 x ptr], [2 x ptr], i16, i16, i32, i32, ptr, ptr }
%struct.ERPicture = type { ptr, ptr, ptr, [2 x ptr], [2 x ptr], ptr, i32 }

@ff_alternate_vertical_scan = external hidden constant [64 x i8], align 16
@ff_zigzag_direct = external constant [64 x i8], align 16
@ff_alternate_horizontal_scan = external hidden constant [64 x i8], align 16

; Function Attrs: cold nounwind optsize uwtable
define void @ff_init_scantable(ptr noundef %0, ptr noundef %1, ptr noundef %2) #0 {
  %4 = alloca ptr, align 8
  %5 = alloca ptr, align 8
  %6 = alloca ptr, align 8
  %7 = alloca i32, align 4
  %8 = alloca i32, align 4
  %9 = alloca i32, align 4
  store ptr %0, ptr %4, align 8, !tbaa !4
  store ptr %1, ptr %5, align 8, !tbaa !9
  store ptr %2, ptr %6, align 8, !tbaa !4
  %10 = load ptr, ptr %6, align 8, !tbaa !4
  %11 = load ptr, ptr %5, align 8, !tbaa !9
  %12 = getelementptr inbounds nuw %struct.ScanTable, ptr %11, i32 0, i32 0
  store ptr %10, ptr %12, align 8, !tbaa !11
  call void @llvm.lifetime.start.p0(i64 4, ptr %7) #7
  store i32 0, ptr %7, align 4, !tbaa !13
  call void @llvm.lifetime.start.p0(i64 4, ptr %8) #7
  store i32 -1, ptr %8, align 4, !tbaa !13
  br label %13

13:                                               ; preds = %57, %3
  %14 = load i32, ptr %7, align 4, !tbaa !13
  %15 = icmp slt i32 %14, 64
  br i1 %15, label %17, label %16

16:                                               ; preds = %13
  call void @llvm.lifetime.end.p0(i64 4, ptr %8) #7
  call void @llvm.lifetime.end.p0(i64 4, ptr %7) #7
  br label %60

17:                                               ; preds = %13
  call void @llvm.lifetime.start.p0(i64 4, ptr %9) #7
  %18 = load ptr, ptr %6, align 8, !tbaa !4
  %19 = load i32, ptr %7, align 4, !tbaa !13
  %20 = sext i32 %19 to i64
  %21 = getelementptr inbounds i8, ptr %18, i64 %20
  %22 = load i8, ptr %21, align 1, !tbaa !15
  %23 = zext i8 %22 to i32
  store i32 %23, ptr %9, align 4, !tbaa !13
  %24 = load ptr, ptr %4, align 8, !tbaa !4
  %25 = load i32, ptr %9, align 4, !tbaa !13
  %26 = sext i32 %25 to i64
  %27 = getelementptr inbounds i8, ptr %24, i64 %26
  %28 = load i8, ptr %27, align 1, !tbaa !15
  %29 = load ptr, ptr %5, align 8, !tbaa !9
  %30 = getelementptr inbounds nuw %struct.ScanTable, ptr %29, i32 0, i32 1
  %31 = load i32, ptr %7, align 4, !tbaa !13
  %32 = sext i32 %31 to i64
  %33 = getelementptr inbounds [64 x i8], ptr %30, i64 0, i64 %32
  store i8 %28, ptr %33, align 1, !tbaa !15
  %34 = load ptr, ptr %4, align 8, !tbaa !4
  %35 = load i32, ptr %9, align 4, !tbaa !13
  %36 = sext i32 %35 to i64
  %37 = getelementptr inbounds i8, ptr %34, i64 %36
  %38 = load i8, ptr %37, align 1, !tbaa !15
  %39 = zext i8 %38 to i32
  %40 = load i32, ptr %8, align 4, !tbaa !13
  %41 = icmp sgt i32 %39, %40
  br i1 %41, label %42, label %49

42:                                               ; preds = %17
  %43 = load ptr, ptr %4, align 8, !tbaa !4
  %44 = load i32, ptr %9, align 4, !tbaa !13
  %45 = sext i32 %44 to i64
  %46 = getelementptr inbounds i8, ptr %43, i64 %45
  %47 = load i8, ptr %46, align 1, !tbaa !15
  %48 = zext i8 %47 to i32
  store i32 %48, ptr %8, align 4, !tbaa !13
  br label %49

49:                                               ; preds = %42, %17
  %50 = load i32, ptr %8, align 4, !tbaa !13
  %51 = trunc i32 %50 to i8
  %52 = load ptr, ptr %5, align 8, !tbaa !9
  %53 = getelementptr inbounds nuw %struct.ScanTable, ptr %52, i32 0, i32 2
  %54 = load i32, ptr %7, align 4, !tbaa !13
  %55 = sext i32 %54 to i64
  %56 = getelementptr inbounds [64 x i8], ptr %53, i64 0, i64 %55
  store i8 %51, ptr %56, align 1, !tbaa !15
  call void @llvm.lifetime.end.p0(i64 4, ptr %9) #7
  br label %57

57:                                               ; preds = %49
  %58 = load i32, ptr %7, align 4, !tbaa !13
  %59 = add nsw i32 %58, 1
  store i32 %59, ptr %7, align 4, !tbaa !13
  br label %13, !llvm.loop !16

60:                                               ; preds = %16
  ret void
}

; Function Attrs: cold nounwind optsize uwtable
define void @ff_mpv_idct_init(ptr noundef %0) #0 {
  %2 = alloca ptr, align 8
  store ptr %0, ptr %2, align 8, !tbaa !18
  %3 = load ptr, ptr %2, align 8, !tbaa !18
  %4 = getelementptr inbounds nuw %struct.MpegEncContext, ptr %3, i32 0, i32 19
  %5 = load i32, ptr %4, align 4, !tbaa !20
  %6 = icmp eq i32 %5, 12
  br i1 %6, label %7, label %14

7:                                                ; preds = %1
  %8 = load ptr, ptr %2, align 8, !tbaa !18
  %9 = getelementptr inbounds nuw %struct.MpegEncContext, ptr %8, i32 0, i32 108
  %10 = load i32, ptr %9, align 4, !tbaa !46
  %11 = load ptr, ptr %2, align 8, !tbaa !18
  %12 = getelementptr inbounds nuw %struct.MpegEncContext, ptr %11, i32 0, i32 69
  %13 = getelementptr inbounds nuw %struct.IDCTDSPContext, ptr %12, i32 0, i32 8
  store i32 %10, ptr %13, align 4, !tbaa !47
  br label %14

14:                                               ; preds = %7, %1
  %15 = load ptr, ptr %2, align 8, !tbaa !18
  %16 = getelementptr inbounds nuw %struct.MpegEncContext, ptr %15, i32 0, i32 69
  %17 = load ptr, ptr %2, align 8, !tbaa !18
  %18 = getelementptr inbounds nuw %struct.MpegEncContext, ptr %17, i32 0, i32 10
  %19 = load ptr, ptr %18, align 8, !tbaa !48
  call void @ff_idctdsp_init(ptr noundef %16, ptr noundef %19)
  %20 = load ptr, ptr %2, align 8, !tbaa !18
  %21 = getelementptr inbounds nuw %struct.MpegEncContext, ptr %20, i32 0, i32 144
  %22 = load i32, ptr %21, align 8, !tbaa !49
  %23 = icmp ne i32 %22, 0
  br i1 %23, label %24, label %37

24:                                               ; preds = %14
  %25 = load ptr, ptr %2, align 8, !tbaa !18
  %26 = getelementptr inbounds nuw %struct.MpegEncContext, ptr %25, i32 0, i32 69
  %27 = getelementptr inbounds nuw %struct.IDCTDSPContext, ptr %26, i32 0, i32 6
  %28 = getelementptr inbounds [64 x i8], ptr %27, i64 0, i64 0
  %29 = load ptr, ptr %2, align 8, !tbaa !18
  %30 = getelementptr inbounds nuw %struct.MpegEncContext, ptr %29, i32 0, i32 6
  call void @ff_init_scantable(ptr noundef %28, ptr noundef %30, ptr noundef @ff_alternate_vertical_scan) #8
  %31 = load ptr, ptr %2, align 8, !tbaa !18
  %32 = getelementptr inbounds nuw %struct.MpegEncContext, ptr %31, i32 0, i32 69
  %33 = getelementptr inbounds nuw %struct.IDCTDSPContext, ptr %32, i32 0, i32 6
  %34 = getelementptr inbounds [64 x i8], ptr %33, i64 0, i64 0
  %35 = load ptr, ptr %2, align 8, !tbaa !18
  %36 = getelementptr inbounds nuw %struct.MpegEncContext, ptr %35, i32 0, i32 7
  call void @ff_init_scantable(ptr noundef %34, ptr noundef %36, ptr noundef @ff_alternate_vertical_scan) #8
  br label %50

37:                                               ; preds = %14
  %38 = load ptr, ptr %2, align 8, !tbaa !18
  %39 = getelementptr inbounds nuw %struct.MpegEncContext, ptr %38, i32 0, i32 69
  %40 = getelementptr inbounds nuw %struct.IDCTDSPContext, ptr %39, i32 0, i32 6
  %41 = getelementptr inbounds [64 x i8], ptr %40, i64 0, i64 0
  %42 = load ptr, ptr %2, align 8, !tbaa !18
  %43 = getelementptr inbounds nuw %struct.MpegEncContext, ptr %42, i32 0, i32 6
  call void @ff_init_scantable(ptr noundef %41, ptr noundef %43, ptr noundef @ff_zigzag_direct) #8
  %44 = load ptr, ptr %2, align 8, !tbaa !18
  %45 = getelementptr inbounds nuw %struct.MpegEncContext, ptr %44, i32 0, i32 69
  %46 = getelementptr inbounds nuw %struct.IDCTDSPContext, ptr %45, i32 0, i32 6
  %47 = getelementptr inbounds [64 x i8], ptr %46, i64 0, i64 0
  %48 = load ptr, ptr %2, align 8, !tbaa !18
  %49 = getelementptr inbounds nuw %struct.MpegEncContext, ptr %48, i32 0, i32 7
  call void @ff_init_scantable(ptr noundef %47, ptr noundef %49, ptr noundef @ff_zigzag_direct) #8
  br label %50

50:                                               ; preds = %37, %24
  %51 = load ptr, ptr %2, align 8, !tbaa !18
  %52 = getelementptr inbounds nuw %struct.MpegEncContext, ptr %51, i32 0, i32 8
  %53 = getelementptr inbounds [64 x i8], ptr %52, i64 0, i64 0
  %54 = load ptr, ptr %2, align 8, !tbaa !18
  %55 = getelementptr inbounds nuw %struct.MpegEncContext, ptr %54, i32 0, i32 69
  %56 = getelementptr inbounds nuw %struct.IDCTDSPContext, ptr %55, i32 0, i32 6
  %57 = getelementptr inbounds [64 x i8], ptr %56, i64 0, i64 0
  call void @ff_permute_scantable(ptr noundef %53, ptr noundef @ff_alternate_horizontal_scan, ptr noundef %57)
  %58 = load ptr, ptr %2, align 8, !tbaa !18
  %59 = getelementptr inbounds nuw %struct.MpegEncContext, ptr %58, i32 0, i32 9
  %60 = getelementptr inbounds [64 x i8], ptr %59, i64 0, i64 0
  %61 = load ptr, ptr %2, align 8, !tbaa !18
  %62 = getelementptr inbounds nuw %struct.MpegEncContext, ptr %61, i32 0, i32 69
  %63 = getelementptr inbounds nuw %struct.IDCTDSPContext, ptr %62, i32 0, i32 6
  %64 = getelementptr inbounds [64 x i8], ptr %63, i64 0, i64 0
  call void @ff_permute_scantable(ptr noundef %60, ptr noundef @ff_alternate_vertical_scan, ptr noundef %64)
  ret void
}