; Function Attrs: cold nounwind optsize uwtable
define void @ff_mpv_idct_init(ptr noundef %0) local_unnamed_addr #2 {
  %2 = getelementptr inbounds nuw i8, ptr %0, i64 516
  %3 = load i32, ptr %2, align 4, !tbaa !13
  %4 = icmp eq i32 %3, 12
  br i1 %4, label %5, label %9

5:                                                ; preds = %1
  %6 = getelementptr inbounds nuw i8, ptr %0, i64 4044
  %7 = load i32, ptr %6, align 4, !tbaa !40
  %8 = getelementptr inbounds nuw i8, ptr %0, i64 2124
  store i32 %7, ptr %8, align 4, !tbaa !41
  br label %9

9:                                                ; preds = %5, %1
  %10 = getelementptr inbounds nuw i8, ptr %0, i64 2008
  %11 = getelementptr inbounds nuw i8, ptr %0, i64 472
  %12 = load ptr, ptr %11, align 8, !tbaa !42
  tail call void @ff_idctdsp_init(ptr noundef nonnull %10, ptr noundef %12) #12
  %13 = getelementptr inbounds nuw i8, ptr %0, i64 4240
  %14 = load i32, ptr %13, align 8, !tbaa !43
  %.not = icmp eq i32 %14, 0
  %15 = getelementptr inbounds nuw i8, ptr %0, i64 2056
  %16 = getelementptr inbounds nuw i8, ptr %0, i64 72
  %17 = getelementptr inbounds nuw i8, ptr %0, i64 80
  %18 = getelementptr inbounds nuw i8, ptr %0, i64 144
  br i1 %.not, label %43, label %19

19:                                               ; preds = %9
  store ptr @ff_alternate_vertical_scan, ptr %16, align 8, !tbaa !4
  br label %20

20:                                               ; preds = %20, %19
  %indvars.iv.i = phi i64 [ 0, %19 ], [ %indvars.iv.next.i, %20 ]
  %.01719.i = phi i32 [ -1, %19 ], [ %spec.select.i, %20 ]
  %21 = getelementptr inbounds nuw i8, ptr @ff_alternate_vertical_scan, i64 %indvars.iv.i
  %22 = load i8, ptr %21, align 1, !tbaa !10
  %23 = zext i8 %22 to i64
  %24 = getelementptr inbounds nuw i8, ptr %15, i64 %23
  %25 = load i8, ptr %24, align 1, !tbaa !10
  %26 = getelementptr inbounds nuw [64 x i8], ptr %17, i64 0, i64 %indvars.iv.i
  store i8 %25, ptr %26, align 1, !tbaa !10
  %27 = zext i8 %25 to i32
  %spec.select.i = tail call i32 @llvm.smax.i32(i32 %.01719.i, i32 %27)
  %28 = trunc nuw i32 %spec.select.i to i8
  %29 = getelementptr inbounds nuw [64 x i8], ptr %18, i64 0, i64 %indvars.iv.i
  store i8 %28, ptr %29, align 1, !tbaa !10
  %indvars.iv.next.i = add nuw nsw i64 %indvars.iv.i, 1
  %exitcond.not.i = icmp eq i64 %indvars.iv.next.i, 64
  br i1 %exitcond.not.i, label %ff_init_scantable.exit, label %20, !llvm.loop !11

ff_init_scantable.exit:                           ; preds = %20
  %30 = getelementptr inbounds nuw i8, ptr %0, i64 208
  store ptr @ff_alternate_vertical_scan, ptr %30, align 8, !tbaa !4
  %31 = getelementptr inbounds nuw i8, ptr %0, i64 216
  %32 = getelementptr inbounds nuw i8, ptr %0, i64 280
  br label %33

33:                                               ; preds = %33, %ff_init_scantable.exit
  %indvars.iv.i18 = phi i64 [ 0, %ff_init_scantable.exit ], [ %indvars.iv.next.i21, %33 ]
  %.01719.i19 = phi i32 [ -1, %ff_init_scantable.exit ], [ %spec.select.i20, %33 ]
  %34 = getelementptr inbounds nuw i8, ptr @ff_alternate_vertical_scan, i64 %indvars.iv.i18
  %35 = load i8, ptr %34, align 1, !tbaa !10
  %36 = zext i8 %35 to i64
  %37 = getelementptr inbounds nuw i8, ptr %15, i64 %36
  %38 = load i8, ptr %37, align 1, !tbaa !10
  %39 = getelementptr inbounds nuw [64 x i8], ptr %31, i64 0, i64 %indvars.iv.i18
  store i8 %38, ptr %39, align 1, !tbaa !10
  %40 = zext i8 %38 to i32
  %spec.select.i20 = tail call i32 @llvm.smax.i32(i32 %.01719.i19, i32 %40)
  %41 = trunc nuw i32 %spec.select.i20 to i8
  %42 = getelementptr inbounds nuw [64 x i8], ptr %32, i64 0, i64 %indvars.iv.i18
  store i8 %41, ptr %42, align 1, !tbaa !10
  %indvars.iv.next.i21 = add nuw nsw i64 %indvars.iv.i18, 1
  %exitcond.not.i22 = icmp eq i64 %indvars.iv.next.i21, 64
  br i1 %exitcond.not.i22, label %ff_init_scantable.exit23, label %33, !llvm.loop !11

43:                                               ; preds = %9
  store ptr @ff_zigzag_direct, ptr %16, align 8, !tbaa !4
  br label %44

44:                                               ; preds = %44, %43
  %indvars.iv.i24 = phi i64 [ 0, %43 ], [ %indvars.iv.next.i27, %44 ]
  %.01719.i25 = phi i32 [ -1, %43 ], [ %spec.select.i26, %44 ]
  %45 = getelementptr inbounds nuw i8, ptr @ff_zigzag_direct, i64 %indvars.iv.i24
  %46 = load i8, ptr %45, align 1, !tbaa !10
  %47 = zext i8 %46 to i64
  %48 = getelementptr inbounds nuw i8, ptr %15, i64 %47
  %49 = load i8, ptr %48, align 1, !tbaa !10
  %50 = getelementptr inbounds nuw [64 x i8], ptr %17, i64 0, i64 %indvars.iv.i24
  store i8 %49, ptr %50, align 1, !tbaa !10
  %51 = zext i8 %49 to i32
  %spec.select.i26 = tail call i32 @llvm.smax.i32(i32 %.01719.i25, i32 %51)
  %52 = trunc nuw i32 %spec.select.i26 to i8
  %53 = getelementptr inbounds nuw [64 x i8], ptr %18, i64 0, i64 %indvars.iv.i24
  store i8 %52, ptr %53, align 1, !tbaa !10
  %indvars.iv.next.i27 = add nuw nsw i64 %indvars.iv.i24, 1
  %exitcond.not.i28 = icmp eq i64 %indvars.iv.next.i27, 64
  br i1 %exitcond.not.i28, label %ff_init_scantable.exit29, label %44, !llvm.loop !11

ff_init_scantable.exit29:                         ; preds = %44
  %54 = getelementptr inbounds nuw i8, ptr %0, i64 208
  store ptr @ff_zigzag_direct, ptr %54, align 8, !tbaa !4
  %55 = getelementptr inbounds nuw i8, ptr %0, i64 216
  %56 = getelementptr inbounds nuw i8, ptr %0, i64 280
  br label %57

57:                                               ; preds = %57, %ff_init_scantable.exit29
  %indvars.iv.i30 = phi i64 [ 0, %ff_init_scantable.exit29 ], [ %indvars.iv.next.i33, %57 ]
  %.01719.i31 = phi i32 [ -1, %ff_init_scantable.exit29 ], [ %spec.select.i32, %57 ]
  %58 = getelementptr inbounds nuw i8, ptr @ff_zigzag_direct, i64 %indvars.iv.i30
  %59 = load i8, ptr %58, align 1, !tbaa !10
  %60 = zext i8 %59 to i64
  %61 = getelementptr inbounds nuw i8, ptr %15, i64 %60
  %62 = load i8, ptr %61, align 1, !tbaa !10
  %63 = getelementptr inbounds nuw [64 x i8], ptr %55, i64 0, i64 %indvars.iv.i30
  store i8 %62, ptr %63, align 1, !tbaa !10
  %64 = zext i8 %62 to i32
  %spec.select.i32 = tail call i32 @llvm.smax.i32(i32 %.01719.i31, i32 %64)
  %65 = trunc nuw i32 %spec.select.i32 to i8
  %66 = getelementptr inbounds nuw [64 x i8], ptr %56, i64 0, i64 %indvars.iv.i30
  store i8 %65, ptr %66, align 1, !tbaa !10
  %indvars.iv.next.i33 = add nuw nsw i64 %indvars.iv.i30, 1
  %exitcond.not.i34 = icmp eq i64 %indvars.iv.next.i33, 64
  br i1 %exitcond.not.i34, label %ff_init_scantable.exit23, label %57, !llvm.loop !11

ff_init_scantable.exit23:                         ; preds = %33, %57
  %67 = getelementptr inbounds nuw i8, ptr %0, i64 344
  %68 = getelementptr inbounds nuw i8, ptr %0, i64 2056
  tail call void @ff_permute_scantable(ptr noundef nonnull %67, ptr noundef nonnull @ff_alternate_horizontal_scan, ptr noundef nonnull %68) #12
  %69 = getelementptr inbounds nuw i8, ptr %0, i64 408
  tail call void @ff_permute_scantable(ptr noundef nonnull %69, ptr noundef nonnull @ff_alternate_vertical_scan, ptr noundef nonnull %68) #12
  ret void
}